SF:/home/mark/lambdalabs/sk/src/config.rs
FN:38,_RNCNvNtCszRiG2tA5OY_2sk6config15load_or_default0B5_
FN:40,_RNCNvNtCszRiG2tA5OY_2sk6config15load_or_defaults_0B5_
FN:61,_RNCNvNtCszRiG2tA5OY_2sk6config4save0B5_
FN:26,_RNvNtCszRiG2tA5OY_2sk6config10config_dir
FN:31,_RNvNtCszRiG2tA5OY_2sk6config11config_path
FN:35,_RNvNtCszRiG2tA5OY_2sk6config15load_or_default
FN:47,_RNvNtCszRiG2tA5OY_2sk6config15save_if_missing
FN:55,_RNvNtCszRiG2tA5OY_2sk6config4save
FN:16,_RNvXNtCszRiG2tA5OY_2sk6configNtB2_10UserConfigNtNtCs9M4aygGZzGM_4core7default7Default7default
FN:26,_RNvNtCsiIZBh9Af6BQ_2sk6config10config_dir
FN:31,_RNvNtCsiIZBh9Af6BQ_2sk6config11config_path
FN:35,_RNvNtCsiIZBh9Af6BQ_2sk6config15load_or_default
FN:47,_RNvNtCsiIZBh9Af6BQ_2sk6config15save_if_missing
FN:55,_RNvNtCsiIZBh9Af6BQ_2sk6config4save
FN:16,_RNvXNtCsiIZBh9Af6BQ_2sk6configNtB2_10UserConfigNtNtCs9M4aygGZzGM_4core7default7Default7default
FN:38,_RNCNvNtCsiIZBh9Af6BQ_2sk6config15load_or_default0B5_
FN:40,_RNCNvNtCsiIZBh9Af6BQ_2sk6config15load_or_defaults_0B5_
FN:61,_RNCNvNtCsiIZBh9Af6BQ_2sk6config4save0B5_
FN:38,_RNCNvNtCs6lq9tbfLiHo_2sk6config15load_or_default0B5_
FN:40,_RNCNvNtCs6lq9tbfLiHo_2sk6config15load_or_defaults_0B5_
FN:61,_RNCNvNtCs6lq9tbfLiHo_2sk6config4save0B5_
FN:26,_RNvNtCs6lq9tbfLiHo_2sk6config10config_dir
FN:31,_RNvNtCs6lq9tbfLiHo_2sk6config11config_path
FN:35,_RNvNtCs6lq9tbfLiHo_2sk6config15load_or_default
FN:47,_RNvNtCs6lq9tbfLiHo_2sk6config15save_if_missing
FN:55,_RNvNtCs6lq9tbfLiHo_2sk6config4save
FN:16,_RNvXNtCs6lq9tbfLiHo_2sk6configNtB2_10UserConfigNtNtCs9M4aygGZzGM_4core7default7Default7default
FN:38,_RNCNvNtCsi7jgFQIBkCW_2sk6config15load_or_default0B5_
FN:40,_RNCNvNtCsi7jgFQIBkCW_2sk6config15load_or_defaults_0B5_
FN:61,_RNCNvNtCsi7jgFQIBkCW_2sk6config4save0B5_
FN:26,_RNvNtCsi7jgFQIBkCW_2sk6config10config_dir
FN:31,_RNvNtCsi7jgFQIBkCW_2sk6config11config_path
FN:35,_RNvNtCsi7jgFQIBkCW_2sk6config15load_or_default
FN:47,_RNvNtCsi7jgFQIBkCW_2sk6config15save_if_missing
FN:55,_RNvNtCsi7jgFQIBkCW_2sk6config4save
FN:16,_RNvXNtCsi7jgFQIBkCW_2sk6configNtB2_10UserConfigNtNtCs9M4aygGZzGM_4core7default7Default7default
FNDA:0,_RNCNvNtCszRiG2tA5OY_2sk6config15load_or_default0B5_
FNDA:0,_RNCNvNtCszRiG2tA5OY_2sk6config15load_or_defaults_0B5_
FNDA:0,_RNCNvNtCszRiG2tA5OY_2sk6config4save0B5_
FNDA:0,_RNvNtCszRiG2tA5OY_2sk6config10config_dir
FNDA:0,_RNvNtCszRiG2tA5OY_2sk6config11config_path
FNDA:0,_RNvNtCszRiG2tA5OY_2sk6config15load_or_default
FNDA:0,_RNvNtCszRiG2tA5OY_2sk6config15save_if_missing
FNDA:0,_RNvNtCszRiG2tA5OY_2sk6config4save
FNDA:0,_RNvXNtCszRiG2tA5OY_2sk6configNtB2_10UserConfigNtNtCs9M4aygGZzGM_4core7default7Default7default
FNDA:15,_RNvNtCsiIZBh9Af6BQ_2sk6config10config_dir
FNDA:15,_RNvNtCsiIZBh9Af6BQ_2sk6config11config_path
FNDA:15,_RNvNtCsiIZBh9Af6BQ_2sk6config15load_or_default
FNDA:0,_RNvNtCsiIZBh9Af6BQ_2sk6config15save_if_missing
FNDA:0,_RNvNtCsiIZBh9Af6BQ_2sk6config4save
FNDA:0,_RNvXNtCsiIZBh9Af6BQ_2sk6configNtB2_10UserConfigNtNtCs9M4aygGZzGM_4core7default7Default7default
FNDA:0,_RNCNvNtCsiIZBh9Af6BQ_2sk6config15load_or_default0B5_
FNDA:0,_RNCNvNtCsiIZBh9Af6BQ_2sk6config15load_or_defaults_0B5_
FNDA:0,_RNCNvNtCsiIZBh9Af6BQ_2sk6config4save0B5_
FNDA:0,_RNCNvNtCs6lq9tbfLiHo_2sk6config15load_or_default0B5_
FNDA:0,_RNCNvNtCs6lq9tbfLiHo_2sk6config15load_or_defaults_0B5_
FNDA:0,_RNCNvNtCs6lq9tbfLiHo_2sk6config4save0B5_
FNDA:0,_RNvNtCs6lq9tbfLiHo_2sk6config10config_dir
FNDA:0,_RNvNtCs6lq9tbfLiHo_2sk6config11config_path
FNDA:0,_RNvNtCs6lq9tbfLiHo_2sk6config15load_or_default
FNDA:0,_RNvNtCs6lq9tbfLiHo_2sk6config15save_if_missing
FNDA:0,_RNvNtCs6lq9tbfLiHo_2sk6config4save
FNDA:0,_RNvXNtCs6lq9tbfLiHo_2sk6configNtB2_10UserConfigNtNtCs9M4aygGZzGM_4core7default7Default7default
FNDA:0,_RNCNvNtCsi7jgFQIBkCW_2sk6config15load_or_default0B5_
FNDA:0,_RNCNvNtCsi7jgFQIBkCW_2sk6config15load_or_defaults_0B5_
FNDA:0,_RNCNvNtCsi7jgFQIBkCW_2sk6config4save0B5_
FNDA:0,_RNvNtCsi7jgFQIBkCW_2sk6config10config_dir
FNDA:0,_RNvNtCsi7jgFQIBkCW_2sk6config11config_path
FNDA:0,_RNvNtCsi7jgFQIBkCW_2sk6config15load_or_default
FNDA:0,_RNvNtCsi7jgFQIBkCW_2sk6config15save_if_missing
FNDA:0,_RNvNtCsi7jgFQIBkCW_2sk6config4save
FNDA:0,_RNvXNtCsi7jgFQIBkCW_2sk6configNtB2_10UserConfigNtNtCs9M4aygGZzGM_4core7default7Default7default
FNF:9
FNH:3
DA:16,0
DA:17,0
DA:18,0
DA:19,0
DA:20,0
DA:21,0
DA:22,0
DA:23,0
DA:26,15
DA:27,15
DA:28,15
DA:29,15
DA:31,15
DA:32,15
DA:33,15
DA:35,15
DA:36,15
DA:37,15
DA:38,15
DA:39,15
DA:40,15
DA:41,15
DA:43,0
DA:45,15
DA:47,0
DA:48,0
DA:49,0
DA:50,0
DA:51,0
DA:52,0
DA:53,0
DA:55,0
DA:56,0
DA:57,0
DA:58,0
DA:59,0
DA:60,0
DA:61,0
DA:62,0
DA:63,0
BRF:0
BRH:0
LF:43
LH:15
end_of_record
SF:/home/mark/lambdalabs/sk/src/digest.rs
FN:7,_RNvNtCszRiG2tA5OY_2sk6digest10digest_dir
FN:27,_RNvNtCszRiG2tA5OY_2sk6digest13should_ignore
FN:11,_RNCNvNtCszRiG2tA5OY_2sk6digest10digest_dir0B5_
FN:13,_RNCNvNtCszRiG2tA5OY_2sk6digest10digest_dirs0_0B5_
FN:14,_RNCNvNtCszRiG2tA5OY_2sk6digest10digest_dirs1_0B5_
FN:12,_RNCNvNtCszRiG2tA5OY_2sk6digest10digest_dirs_0B5_
FN:28,_RNCNvNtCszRiG2tA5OY_2sk6digest13should_ignore0B5_
FN:11,_RNCNvNtCsiIZBh9Af6BQ_2sk6digest10digest_dir0B5_
FN:13,_RNCNvNtCsiIZBh9Af6BQ_2sk6digest10digest_dirs0_0B5_
FN:14,_RNCNvNtCsiIZBh9Af6BQ_2sk6digest10digest_dirs1_0B5_
FN:12,_RNCNvNtCsiIZBh9Af6BQ_2sk6digest10digest_dirs_0B5_
FN:28,_RNCNvNtCsiIZBh9Af6BQ_2sk6digest13should_ignore0B5_
FN:7,_RNvNtCsiIZBh9Af6BQ_2sk6digest10digest_dir
FN:27,_RNvNtCsiIZBh9Af6BQ_2sk6digest13should_ignore
FN:11,_RNCNvNtCs6lq9tbfLiHo_2sk6digest10digest_dir0B5_
FN:13,_RNCNvNtCs6lq9tbfLiHo_2sk6digest10digest_dirs0_0B5_
FN:14,_RNCNvNtCs6lq9tbfLiHo_2sk6digest10digest_dirs1_0B5_
FN:12,_RNCNvNtCs6lq9tbfLiHo_2sk6digest10digest_dirs_0B5_
FN:28,_RNCNvNtCs6lq9tbfLiHo_2sk6digest13should_ignore0B5_
FN:7,_RNvNtCs6lq9tbfLiHo_2sk6digest10digest_dir
FN:27,_RNvNtCs6lq9tbfLiHo_2sk6digest13should_ignore
FN:11,_RNCNvNtCsi7jgFQIBkCW_2sk6digest10digest_dir0B5_
FN:13,_RNCNvNtCsi7jgFQIBkCW_2sk6digest10digest_dirs0_0B5_
FN:14,_RNCNvNtCsi7jgFQIBkCW_2sk6digest10digest_dirs1_0B5_
FN:12,_RNCNvNtCsi7jgFQIBkCW_2sk6digest10digest_dirs_0B5_
FN:28,_RNCNvNtCsi7jgFQIBkCW_2sk6digest13should_ignore0B5_
FN:7,_RNvNtCsi7jgFQIBkCW_2sk6digest10digest_dir
FN:27,_RNvNtCsi7jgFQIBkCW_2sk6digest13should_ignore
FNDA:0,_RNvNtCszRiG2tA5OY_2sk6digest10digest_dir
FNDA:0,_RNvNtCszRiG2tA5OY_2sk6digest13should_ignore
FNDA:0,_RNCNvNtCszRiG2tA5OY_2sk6digest10digest_dir0B5_
FNDA:0,_RNCNvNtCszRiG2tA5OY_2sk6digest10digest_dirs0_0B5_
FNDA:0,_RNCNvNtCszRiG2tA5OY_2sk6digest10digest_dirs1_0B5_
FNDA:0,_RNCNvNtCszRiG2tA5OY_2sk6digest10digest_dirs_0B5_
FNDA:0,_RNCNvNtCszRiG2tA5OY_2sk6digest13should_ignore0B5_
FNDA:82,_RNCNvNtCsiIZBh9Af6BQ_2sk6digest10digest_dir0B5_
FNDA:54,_RNCNvNtCsiIZBh9Af6BQ_2sk6digest10digest_dirs0_0B5_
FNDA:54,_RNCNvNtCsiIZBh9Af6BQ_2sk6digest10digest_dirs1_0B5_
FNDA:82,_RNCNvNtCsiIZBh9Af6BQ_2sk6digest10digest_dirs_0B5_
FNDA:54,_RNCNvNtCsiIZBh9Af6BQ_2sk6digest13should_ignore0B5_
FNDA:27,_RNvNtCsiIZBh9Af6BQ_2sk6digest10digest_dir
FNDA:54,_RNvNtCsiIZBh9Af6BQ_2sk6digest13should_ignore
FNDA:0,_RNCNvNtCs6lq9tbfLiHo_2sk6digest10digest_dir0B5_
FNDA:0,_RNCNvNtCs6lq9tbfLiHo_2sk6digest10digest_dirs0_0B5_
FNDA:0,_RNCNvNtCs6lq9tbfLiHo_2sk6digest10digest_dirs1_0B5_
FNDA:0,_RNCNvNtCs6lq9tbfLiHo_2sk6digest10digest_dirs_0B5_
FNDA:0,_RNCNvNtCs6lq9tbfLiHo_2sk6digest13should_ignore0B5_
FNDA:0,_RNvNtCs6lq9tbfLiHo_2sk6digest10digest_dir
FNDA:0,_RNvNtCs6lq9tbfLiHo_2sk6digest13should_ignore
FNDA:0,_RNCNvNtCsi7jgFQIBkCW_2sk6digest10digest_dir0B5_
FNDA:0,_RNCNvNtCsi7jgFQIBkCW_2sk6digest10digest_dirs0_0B5_
FNDA:0,_RNCNvNtCsi7jgFQIBkCW_2sk6digest10digest_dirs1_0B5_
FNDA:0,_RNCNvNtCsi7jgFQIBkCW_2sk6digest10digest_dirs_0B5_
FNDA:0,_RNCNvNtCsi7jgFQIBkCW_2sk6digest13should_ignore0B5_
FNDA:0,_RNvNtCsi7jgFQIBkCW_2sk6digest10digest_dir
FNDA:0,_RNvNtCsi7jgFQIBkCW_2sk6digest13should_ignore
FNF:7
FNH:7
DA:7,27
DA:8,27
DA:9,27
DA:10,27
DA:11,82
DA:12,82
DA:13,54
DA:14,54
DA:15,27
DA:16,27
DA:17,81
DA:18,54
DA:19,54
DA:20,54
DA:21,54
DA:23,27
DA:24,27
DA:25,27
DA:27,54
DA:28,54
DA:29,54
DA:30,54
BRF:0
BRH:0
LF:27
LH:27
end_of_record
SF:/home/mark/lambdalabs/sk/src/doctor.rs
FN:171,_RNCNvNtCszRiG2tA5OY_2sk6doctor10run_doctor0B5_
FN:179,_RNCNvNtCszRiG2tA5OY_2sk6doctor10run_doctors_0B5_
FN:8,_RNvNtCszRiG2tA5OY_2sk6doctor10run_doctor
FN:194,_RNvNtCszRiG2tA5OY_2sk6doctor14clean_if_empty
FN:25,_RNvNvNtCszRiG2tA5OY_2sk6doctor10run_doctor14lock_entry_key
FN:8,_RNvNtCsiIZBh9Af6BQ_2sk6doctor10run_doctor
FN:194,_RNvNtCsiIZBh9Af6BQ_2sk6doctor14clean_if_empty
FN:25,_RNvNvNtCsiIZBh9Af6BQ_2sk6doctor10run_doctor14lock_entry_key
FN:171,_RNCNvNtCsiIZBh9Af6BQ_2sk6doctor10run_doctor0B5_
FN:179,_RNCNvNtCsiIZBh9Af6BQ_2sk6doctor10run_doctors_0B5_
FN:171,_RNCNvNtCs6lq9tbfLiHo_2sk6doctor10run_doctor0B5_
FN:179,_RNCNvNtCs6lq9tbfLiHo_2sk6doctor10run_doctors_0B5_
FN:8,_RNvNtCs6lq9tbfLiHo_2sk6doctor10run_doctor
FN:194,_RNvNtCs6lq9tbfLiHo_2sk6doctor14clean_if_empty
FN:25,_RNvNvNtCs6lq9tbfLiHo_2sk6doctor10run_doctor14lock_entry_key
FN:171,_RNCNvNtCsi7jgFQIBkCW_2sk6doctor10run_doctor0B5_
FN:179,_RNCNvNtCsi7jgFQIBkCW_2sk6doctor10run_doctors_0B5_
FN:8,_RNvNtCsi7jgFQIBkCW_2sk6doctor10run_doctor
FN:194,_RNvNtCsi7jgFQIBkCW_2sk6doctor14clean_if_empty
FN:25,_RNvNvNtCsi7jgFQIBkCW_2sk6doctor10run_doctor14lock_entry_key
FNDA:0,_RNCNvNtCszRiG2tA5OY_2sk6doctor10run_doctor0B5_
FNDA:0,_RNCNvNtCszRiG2tA5OY_2sk6doctor10run_doctors_0B5_
FNDA:0,_RNvNtCszRiG2tA5OY_2sk6doctor10run_doctor
FNDA:0,_RNvNtCszRiG2tA5OY_2sk6doctor14clean_if_empty
FNDA:0,_RNvNvNtCszRiG2tA5OY_2sk6doctor10run_doctor14lock_entry_key
FNDA:3,_RNvNtCsiIZBh9Af6BQ_2sk6doctor10run_doctor
FNDA:2,_RNvNtCsiIZBh9Af6BQ_2sk6doctor14clean_if_empty
FNDA:6,_RNvNvNtCsiIZBh9Af6BQ_2sk6doctor10run_doctor14lock_entry_key
FNDA:3,_RNCNvNtCsiIZBh9Af6BQ_2sk6doctor10run_doctor0B5_
FNDA:0,_RNCNvNtCsiIZBh9Af6BQ_2sk6doctor10run_doctors_0B5_
FNDA:0,_RNCNvNtCs6lq9tbfLiHo_2sk6doctor10run_doctor0B5_
FNDA:0,_RNCNvNtCs6lq9tbfLiHo_2sk6doctor10run_doctors_0B5_
FNDA:0,_RNvNtCs6lq9tbfLiHo_2sk6doctor10run_doctor
FNDA:0,_RNvNtCs6lq9tbfLiHo_2sk6doctor14clean_if_empty
FNDA:0,_RNvNvNtCs6lq9tbfLiHo_2sk6doctor10run_doctor14lock_entry_key
FNDA:0,_RNCNvNtCsi7jgFQIBkCW_2sk6doctor10run_doctor0B5_
FNDA:0,_RNCNvNtCsi7jgFQIBkCW_2sk6doctor10run_doctors_0B5_
FNDA:0,_RNvNtCsi7jgFQIBkCW_2sk6doctor10run_doctor
FNDA:0,_RNvNtCsi7jgFQIBkCW_2sk6doctor14clean_if_empty
FNDA:0,_RNvNvNtCsi7jgFQIBkCW_2sk6doctor10run_doctor14lock_entry_key
FNF:5
FNH:4
DA:8,3
DA:9,3
DA:10,3
DA:11,3
DA:12,0
DA:13,0
DA:14,3
DA:16,3
DA:17,3
DA:18,3
DA:19,3
DA:20,3
DA:23,3
DA:25,6
DA:27,6
DA:28,6
DA:37,6
DA:41,3
DA:42,8
DA:43,5
DA:44,1
DA:45,1
DA:46,4
DA:51,3
DA:52,8
DA:53,5
DA:54,5
DA:55,5
DA:56,5
DA:57,5
DA:58,5
DA:59,3
DA:60,3
DA:61,3
DA:63,0
DA:64,0
DA:65,0
DA:66,0
DA:67,0
DA:68,0
DA:69,0
DA:70,0
DA:71,0
DA:72,0
DA:73,3
DA:74,3
DA:75,3
DA:76,3
DA:77,3
DA:78,2
DA:81,0
DA:82,0
DA:83,0
DA:84,0
DA:85,0
DA:86,0
DA:87,0
DA:88,0
DA:89,0
DA:90,0
DA:91,0
DA:95,5
DA:96,5
DA:97,5
DA:98,4
DA:99,4
DA:100,4
DA:101,1
DA:102,1
DA:103,1
DA:108,3
DA:109,3
DA:110,1
DA:112,1
DA:113,1
DA:114,1
DA:115,0
DA:116,1
DA:117,1
DA:118,1
DA:119,1
DA:120,0
DA:121,1
DA:122,1
DA:123,2
DA:124,2
DA:125,2
DA:126,0
DA:127,2
DA:129,2
DA:130,0
DA:131,2
DA:132,2
DA:133,1
DA:134,1
DA:135,1
DA:136,1
DA:138,1
DA:139,1
DA:140,0
DA:141,0
DA:142,0
DA:143,0
DA:144,0
DA:145,1
DA:146,1
DA:147,1
DA:148,1
DA:149,1
DA:150,1
DA:151,1
DA:152,1
DA:153,1
DA:154,0
DA:155,1
DA:157,0
DA:159,0
DA:161,0
DA:162,2
DA:165,3
DA:166,2
DA:167,2
DA:168,2
DA:169,2
DA:170,2
DA:171,3
DA:172,2
DA:173,2
DA:174,2
DA:175,0
DA:177,2
DA:178,2
DA:179,2
DA:180,2
DA:182,2
DA:183,2
DA:184,2
DA:185,0
DA:186,1
DA:188,3
DA:189,0
DA:190,3
DA:191,3
DA:192,3
DA:194,2
DA:195,2
DA:196,0
DA:197,2
DA:198,2
DA:199,2
BRF:0
BRH:0
LF:152
LH:111
end_of_record
SF:/home/mark/lambdalabs/sk/src/git.rs
FN:235,_RNvNtCszRiG2tA5OY_2sk3git10has_object
FN:13,_RNvNtCszRiG2tA5OY_2sk3git15ensure_git_repo
FN:25,_RNvNtCszRiG2tA5OY_2sk3git16parse_repo_input
FN:213,_RNvNtCszRiG2tA5OY_2sk3git17remote_branch_tip
FN:121,_RNvNtCszRiG2tA5OY_2sk3git18ensure_cached_repo
FN:144,_RNvNtCszRiG2tA5OY_2sk3git28detect_or_set_default_branch
FN:196,_RNvNtCszRiG2tA5OY_2sk3git9rev_parse
FN:42,_RNCNvNtCszRiG2tA5OY_2sk3git16parse_repo_input0B5_
FN:47,_RNCNvNtCszRiG2tA5OY_2sk3git16parse_repo_inputs0_0B5_
FN:46,_RNCNvNtCszRiG2tA5OY_2sk3git16parse_repo_inputs_0B5_
FN:123,_RNCNvNtCszRiG2tA5OY_2sk3git18ensure_cached_repo0B5_
FN:177,_RNCNvNtCszRiG2tA5OY_2sk3git28detect_or_set_default_branch0B5_
FN:235,_RNvNtCsiIZBh9Af6BQ_2sk3git10has_object
FN:13,_RNvNtCsiIZBh9Af6BQ_2sk3git15ensure_git_repo
FN:25,_RNvNtCsiIZBh9Af6BQ_2sk3git16parse_repo_input
FN:213,_RNvNtCsiIZBh9Af6BQ_2sk3git17remote_branch_tip
FN:121,_RNvNtCsiIZBh9Af6BQ_2sk3git18ensure_cached_repo
FN:144,_RNvNtCsiIZBh9Af6BQ_2sk3git28detect_or_set_default_branch
FN:196,_RNvNtCsiIZBh9Af6BQ_2sk3git9rev_parse
FN:42,_RNCNvNtCsiIZBh9Af6BQ_2sk3git16parse_repo_input0B5_
FN:47,_RNCNvNtCsiIZBh9Af6BQ_2sk3git16parse_repo_inputs0_0B5_
FN:46,_RNCNvNtCsiIZBh9Af6BQ_2sk3git16parse_repo_inputs_0B5_
FN:123,_RNCNvNtCsiIZBh9Af6BQ_2sk3git18ensure_cached_repo0B5_
FN:177,_RNCNvNtCsiIZBh9Af6BQ_2sk3git28detect_or_set_default_branch0B5_
FN:42,_RNCNvNtCs6lq9tbfLiHo_2sk3git16parse_repo_input0B5_
FN:47,_RNCNvNtCs6lq9tbfLiHo_2sk3git16parse_repo_inputs0_0B5_
FN:46,_RNCNvNtCs6lq9tbfLiHo_2sk3git16parse_repo_inputs_0B5_
FN:123,_RNCNvNtCs6lq9tbfLiHo_2sk3git18ensure_cached_repo0B5_
FN:177,_RNCNvNtCs6lq9tbfLiHo_2sk3git28detect_or_set_default_branch0B5_
FN:235,_RNvNtCs6lq9tbfLiHo_2sk3git10has_object
FN:13,_RNvNtCs6lq9tbfLiHo_2sk3git15ensure_git_repo
FN:25,_RNvNtCs6lq9tbfLiHo_2sk3git16parse_repo_input
FN:213,_RNvNtCs6lq9tbfLiHo_2sk3git17remote_branch_tip
FN:121,_RNvNtCs6lq9tbfLiHo_2sk3git18ensure_cached_repo
FN:144,_RNvNtCs6lq9tbfLiHo_2sk3git28detect_or_set_default_branch
FN:196,_RNvNtCs6lq9tbfLiHo_2sk3git9rev_parse
FN:42,_RNCNvNtCsi7jgFQIBkCW_2sk3git16parse_repo_input0B5_
FN:47,_RNCNvNtCsi7jgFQIBkCW_2sk3git16parse_repo_inputs0_0B5_
FN:46,_RNCNvNtCsi7jgFQIBkCW_2sk3git16parse_repo_inputs_0B5_
FN:123,_RNCNvNtCsi7jgFQIBkCW_2sk3git18ensure_cached_repo0B5_
FN:177,_RNCNvNtCsi7jgFQIBkCW_2sk3git28detect_or_set_default_branch0B5_
FN:235,_RNvNtCsi7jgFQIBkCW_2sk3git10has_object
FN:13,_RNvNtCsi7jgFQIBkCW_2sk3git15ensure_git_repo
FN:25,_RNvNtCsi7jgFQIBkCW_2sk3git16parse_repo_input
FN:213,_RNvNtCsi7jgFQIBkCW_2sk3git17remote_branch_tip
FN:121,_RNvNtCsi7jgFQIBkCW_2sk3git18ensure_cached_repo
FN:144,_RNvNtCsi7jgFQIBkCW_2sk3git28detect_or_set_default_branch
FN:196,_RNvNtCsi7jgFQIBkCW_2sk3git9rev_parse
FNDA:0,_RNvNtCszRiG2tA5OY_2sk3git10has_object
FNDA:0,_RNvNtCszRiG2tA5OY_2sk3git15ensure_git_repo
FNDA:0,_RNvNtCszRiG2tA5OY_2sk3git16parse_repo_input
FNDA:0,_RNvNtCszRiG2tA5OY_2sk3git17remote_branch_tip
FNDA:0,_RNvNtCszRiG2tA5OY_2sk3git18ensure_cached_repo
FNDA:0,_RNvNtCszRiG2tA5OY_2sk3git28detect_or_set_default_branch
FNDA:0,_RNvNtCszRiG2tA5OY_2sk3git9rev_parse
FNDA:0,_RNCNvNtCszRiG2tA5OY_2sk3git16parse_repo_input0B5_
FNDA:0,_RNCNvNtCszRiG2tA5OY_2sk3git16parse_repo_inputs0_0B5_
FNDA:0,_RNCNvNtCszRiG2tA5OY_2sk3git16parse_repo_inputs_0B5_
FNDA:0,_RNCNvNtCszRiG2tA5OY_2sk3git18ensure_cached_repo0B5_
FNDA:0,_RNCNvNtCszRiG2tA5OY_2sk3git28detect_or_set_default_branch0B5_
FNDA:2,_RNvNtCsiIZBh9Af6BQ_2sk3git10has_object
FNDA:18,_RNvNtCsiIZBh9Af6BQ_2sk3git15ensure_git_repo
FNDA:1,_RNvNtCsiIZBh9Af6BQ_2sk3git16parse_repo_input
FNDA:1,_RNvNtCsiIZBh9Af6BQ_2sk3git17remote_branch_tip
FNDA:20,_RNvNtCsiIZBh9Af6BQ_2sk3git18ensure_cached_repo
FNDA:19,_RNvNtCsiIZBh9Af6BQ_2sk3git28detect_or_set_default_branch
FNDA:19,_RNvNtCsiIZBh9Af6BQ_2sk3git9rev_parse
FNDA:1,_RNCNvNtCsiIZBh9Af6BQ_2sk3git16parse_repo_input0B5_
FNDA:1,_RNCNvNtCsiIZBh9Af6BQ_2sk3git16parse_repo_inputs0_0B5_
FNDA:1,_RNCNvNtCsiIZBh9Af6BQ_2sk3git16parse_repo_inputs_0B5_
FNDA:0,_RNCNvNtCsiIZBh9Af6BQ_2sk3git18ensure_cached_repo0B5_
FNDA:0,_RNCNvNtCsiIZBh9Af6BQ_2sk3git28detect_or_set_default_branch0B5_
FNDA:0,_RNCNvNtCs6lq9tbfLiHo_2sk3git16parse_repo_input0B5_
FNDA:0,_RNCNvNtCs6lq9tbfLiHo_2sk3git16parse_repo_inputs0_0B5_
FNDA:0,_RNCNvNtCs6lq9tbfLiHo_2sk3git16parse_repo_inputs_0B5_
FNDA:0,_RNCNvNtCs6lq9tbfLiHo_2sk3git18ensure_cached_repo0B5_
FNDA:0,_RNCNvNtCs6lq9tbfLiHo_2sk3git28detect_or_set_default_branch0B5_
FNDA:0,_RNvNtCs6lq9tbfLiHo_2sk3git10has_object
FNDA:0,_RNvNtCs6lq9tbfLiHo_2sk3git15ensure_git_repo
FNDA:0,_RNvNtCs6lq9tbfLiHo_2sk3git16parse_repo_input
FNDA:0,_RNvNtCs6lq9tbfLiHo_2sk3git17remote_branch_tip
FNDA:0,_RNvNtCs6lq9tbfLiHo_2sk3git18ensure_cached_repo
FNDA:0,_RNvNtCs6lq9tbfLiHo_2sk3git28detect_or_set_default_branch
FNDA:0,_RNvNtCs6lq9tbfLiHo_2sk3git9rev_parse
FNDA:0,_RNCNvNtCsi7jgFQIBkCW_2sk3git16parse_repo_input0B5_
FNDA:0,_RNCNvNtCsi7jgFQIBkCW_2sk3git16parse_repo_inputs0_0B5_
FNDA:0,_RNCNvNtCsi7jgFQIBkCW_2sk3git16parse_repo_inputs_0B5_
FNDA:0,_RNCNvNtCsi7jgFQIBkCW_2sk3git18ensure_cached_repo0B5_
FNDA:0,_RNCNvNtCsi7jgFQIBkCW_2sk3git28detect_or_set_default_branch0B5_
FNDA:0,_RNvNtCsi7jgFQIBkCW_2sk3git10has_object
FNDA:0,_RNvNtCsi7jgFQIBkCW_2sk3git15ensure_git_repo
FNDA:0,_RNvNtCsi7jgFQIBkCW_2sk3git16parse_repo_input
FNDA:0,_RNvNtCsi7jgFQIBkCW_2sk3git17remote_branch_tip
FNDA:0,_RNvNtCsi7jgFQIBkCW_2sk3git18ensure_cached_repo
FNDA:0,_RNvNtCsi7jgFQIBkCW_2sk3git28detect_or_set_default_branch
FNDA:0,_RNvNtCsi7jgFQIBkCW_2sk3git9rev_parse
FNF:12
FNH:10
DA:13,18
DA:14,18
DA:15,18
DA:16,18
DA:17,18
DA:18,18
DA:19,0
DA:20,18
DA:21,18
DA:22,18
DA:23,18
DA:25,1
DA:28,1
DA:30,1
DA:31,0
DA:32,1
DA:36,1
DA:37,1
DA:39,0
DA:41,1
DA:42,1
DA:43,1
DA:44,1
DA:45,1
DA:46,1
DA:47,1
DA:48,1
DA:49,1
DA:50,1
DA:51,1
DA:52,1
DA:53,1
DA:54,1
DA:55,1
DA:56,0
DA:57,0
DA:58,0
DA:59,0
DA:60,0
DA:61,0
DA:62,0
DA:64,0
DA:66,0
DA:67,0
DA:68,0
DA:69,0
DA:70,0
DA:71,0
DA:72,0
DA:74,0
DA:76,0
DA:77,0
DA:78,0
DA:79,0
DA:81,0
DA:82,0
DA:83,0
DA:84,0
DA:85,0
DA:86,0
DA:87,0
DA:88,0
DA:89,0
DA:90,0
DA:91,0
DA:92,0
DA:93,0
DA:95,0
DA:97,0
DA:99,0
DA:100,0
DA:101,0
DA:102,0
DA:103,0
DA:104,0
DA:105,0
DA:106,0
DA:107,0
DA:108,0
DA:109,0
DA:110,0
DA:111,0
DA:112,0
DA:113,0
DA:114,0
DA:115,0
DA:116,0
DA:117,0
DA:118,0
DA:119,1
DA:121,20
DA:122,20
DA:123,1
DA:125,1
DA:126,1
DA:127,1
DA:128,1
DA:129,1
DA:130,0
DA:131,1
DA:132,19
DA:134,20
DA:135,20
DA:136,20
DA:137,20
DA:138,20
DA:139,0
DA:140,20
DA:141,20
DA:142,20
DA:144,19
DA:146,19
DA:147,19
DA:148,19
DA:149,19
DA:150,19
DA:151,19
DA:152,19
DA:153,19
DA:154,19
DA:155,19
DA:156,19
DA:157,19
DA:159,19
DA:160,19
DA:161,0
DA:162,0
DA:164,0
DA:165,0
DA:166,0
DA:167,0
DA:168,0
DA:169,0
DA:170,0
DA:171,0
DA:173,0
DA:174,0
DA:175,0
DA:176,0
DA:177,0
DA:178,0
DA:179,0
DA:181,0
DA:183,0
DA:184,0
DA:185,0
DA:186,0
DA:187,0
DA:188,0
DA:189,0
DA:190,0
DA:191,0
DA:192,0
DA:193,0
DA:194,19
DA:196,19
DA:197,19
DA:198,19
DA:199,19
DA:200,19
DA:201,19
DA:202,19
DA:203,19
DA:204,19
DA:205,19
DA:206,19
DA:207,19
DA:208,0
DA:209,19
DA:210,19
DA:211,19
DA:213,1
DA:215,1
DA:216,1
DA:217,1
DA:218,1
DA:219,1
DA:220,1
DA:221,1
DA:222,1
DA:223,1
DA:224,1
DA:225,1
DA:226,1
DA:227,0
DA:228,1
DA:230,1
DA:231,1
DA:232,1
DA:233,1
DA:235,2
DA:236,2
DA:237,2
DA:238,2
DA:239,2
DA:240,2
DA:241,2
BRF:0
BRH:0
LF:202
LH:109
end_of_record
SF:/home/mark/lambdalabs/sk/src/install.rs
FN:18,_RNvNtCszRiG2tA5OY_2sk7install11run_install
FN:162,_RNvNtCszRiG2tA5OY_2sk7install26extract_subdir_from_commit
FN:52,_RNCNvNtCszRiG2tA5OY_2sk7install11run_install0B5_
FN:71,_RNCNvNtCszRiG2tA5OY_2sk7install11run_installs0_0B5_
FN:134,_RNCNvNtCszRiG2tA5OY_2sk7install11run_installs1_0B5_
FN:138,_RNCNvNtCszRiG2tA5OY_2sk7install11run_installs2_0B5_
FN:66,_RNCNvNtCszRiG2tA5OY_2sk7install11run_installs_0B5_
FN:18,_RNvNtCsiIZBh9Af6BQ_2sk7install11run_install
FN:162,_RNvNtCsiIZBh9Af6BQ_2sk7install26extract_subdir_from_commit
FN:52,_RNCNvNtCsiIZBh9Af6BQ_2sk7install11run_install0B5_
FN:71,_RNCNvNtCsiIZBh9Af6BQ_2sk7install11run_installs0_0B5_
FN:134,_RNCNvNtCsiIZBh9Af6BQ_2sk7install11run_installs1_0B5_
FN:138,_RNCNvNtCsiIZBh9Af6BQ_2sk7install11run_installs2_0B5_
FN:66,_RNCNvNtCsiIZBh9Af6BQ_2sk7install11run_installs_0B5_
FN:52,_RNCNvNtCs6lq9tbfLiHo_2sk7install11run_install0B5_
FN:71,_RNCNvNtCs6lq9tbfLiHo_2sk7install11run_installs0_0B5_
FN:134,_RNCNvNtCs6lq9tbfLiHo_2sk7install11run_installs1_0B5_
FN:138,_RNCNvNtCs6lq9tbfLiHo_2sk7install11run_installs2_0B5_
FN:66,_RNCNvNtCs6lq9tbfLiHo_2sk7install11run_installs_0B5_
FN:18,_RNvNtCs6lq9tbfLiHo_2sk7install11run_install
FN:162,_RNvNtCs6lq9tbfLiHo_2sk7install26extract_subdir_from_commit
FN:52,_RNCNvNtCsi7jgFQIBkCW_2sk7install11run_install0B5_
FN:71,_RNCNvNtCsi7jgFQIBkCW_2sk7install11run_installs0_0B5_
FN:134,_RNCNvNtCsi7jgFQIBkCW_2sk7install11run_installs1_0B5_
FN:138,_RNCNvNtCsi7jgFQIBkCW_2sk7install11run_installs2_0B5_
FN:66,_RNCNvNtCsi7jgFQIBkCW_2sk7install11run_installs_0B5_
FN:18,_RNvNtCsi7jgFQIBkCW_2sk7install11run_install
FN:162,_RNvNtCsi7jgFQIBkCW_2sk7install26extract_subdir_from_commit
FNDA:0,_RNvNtCszRiG2tA5OY_2sk7install11run_install
FNDA:0,_RNvNtCszRiG2tA5OY_2sk7install26extract_subdir_from_commit
FNDA:0,_RNCNvNtCszRiG2tA5OY_2sk7install11run_install0B5_
FNDA:0,_RNCNvNtCszRiG2tA5OY_2sk7install11run_installs0_0B5_
FNDA:0,_RNCNvNtCszRiG2tA5OY_2sk7install11run_installs1_0B5_
FNDA:0,_RNCNvNtCszRiG2tA5OY_2sk7install11run_installs2_0B5_
FNDA:0,_RNCNvNtCszRiG2tA5OY_2sk7install11run_installs_0B5_
FNDA:1,_RNvNtCsiIZBh9Af6BQ_2sk7install11run_install
FNDA:8,_RNvNtCsiIZBh9Af6BQ_2sk7install26extract_subdir_from_commit
FNDA:1,_RNCNvNtCsiIZBh9Af6BQ_2sk7install11run_install0B5_
FNDA:0,_RNCNvNtCsiIZBh9Af6BQ_2sk7install11run_installs0_0B5_
FNDA:0,_RNCNvNtCsiIZBh9Af6BQ_2sk7install11run_installs1_0B5_
FNDA:0,_RNCNvNtCsiIZBh9Af6BQ_2sk7install11run_installs2_0B5_
FNDA:0,_RNCNvNtCsiIZBh9Af6BQ_2sk7install11run_installs_0B5_
FNDA:0,_RNCNvNtCs6lq9tbfLiHo_2sk7install11run_install0B5_
FNDA:0,_RNCNvNtCs6lq9tbfLiHo_2sk7install11run_installs0_0B5_
FNDA:0,_RNCNvNtCs6lq9tbfLiHo_2sk7install11run_installs1_0B5_
FNDA:0,_RNCNvNtCs6lq9tbfLiHo_2sk7install11run_installs2_0B5_
FNDA:0,_RNCNvNtCs6lq9tbfLiHo_2sk7install11run_installs_0B5_
FNDA:0,_RNvNtCs6lq9tbfLiHo_2sk7install11run_install
FNDA:0,_RNvNtCs6lq9tbfLiHo_2sk7install26extract_subdir_from_commit
FNDA:0,_RNCNvNtCsi7jgFQIBkCW_2sk7install11run_install0B5_
FNDA:0,_RNCNvNtCsi7jgFQIBkCW_2sk7install11run_installs0_0B5_
FNDA:0,_RNCNvNtCsi7jgFQIBkCW_2sk7install11run_installs1_0B5_
FNDA:0,_RNCNvNtCsi7jgFQIBkCW_2sk7install11run_installs2_0B5_
FNDA:0,_RNCNvNtCsi7jgFQIBkCW_2sk7install11run_installs_0B5_
FNDA:0,_RNvNtCsi7jgFQIBkCW_2sk7install11run_install
FNDA:0,_RNvNtCsi7jgFQIBkCW_2sk7install26extract_subdir_from_commit
FNF:7
FNH:3
DA:18,1
DA:19,1
DA:20,1
DA:21,1
DA:22,1
DA:23,1
DA:26,1
DA:27,1
DA:28,1
DA:29,1
DA:32,1
DA:33,0
DA:35,0
DA:36,0
DA:37,0
DA:39,0
DA:43,1
DA:44,1
DA:49,1
DA:50,1
DA:51,1
DA:52,1
DA:53,1
DA:54,1
DA:55,0
DA:56,0
DA:60,1
DA:61,1
DA:62,0
DA:63,0
DA:64,0
DA:65,0
DA:66,0
DA:67,0
DA:69,0
DA:70,0
DA:71,0
DA:72,0
DA:73,0
DA:74,0
DA:75,0
DA:80,1
DA:83,1
DA:84,1
DA:85,1
DA:86,0
DA:87,0
DA:88,1
DA:91,1
DA:92,1
DA:93,1
DA:94,1
DA:95,1
DA:96,1
DA:97,1
DA:98,1
DA:99,1
DA:100,1
DA:101,1
DA:102,1
DA:103,1
DA:104,1
DA:105,1
DA:106,1
DA:107,1
DA:108,1
DA:109,1
DA:110,1
DA:111,1
DA:112,1
DA:113,1
DA:114,1
DA:115,1
DA:116,1
DA:117,1
DA:118,1
DA:119,0
DA:120,1
DA:123,1
DA:126,1
DA:127,1
DA:128,0
DA:129,0
DA:131,1
DA:134,1
DA:135,0
DA:136,1
DA:138,1
DA:139,1
DA:140,1
DA:141,1
DA:142,1
DA:143,1
DA:144,1
DA:145,1
DA:146,1
DA:147,1
DA:148,1
DA:149,1
DA:150,1
DA:151,1
DA:152,1
DA:153,1
DA:154,1
DA:155,1
DA:157,1
DA:158,1
DA:159,1
DA:160,1
DA:162,8
DA:163,8
DA:164,8
DA:165,8
DA:166,8
DA:167,8
DA:168,8
DA:169,8
DA:170,8
DA:171,8
DA:172,8
DA:173,8
DA:174,8
DA:175,8
DA:176,8
DA:177,8
DA:178,8
DA:179,8
DA:180,8
DA:181,8
DA:182,8
DA:183,8
DA:184,8
DA:185,8
DA:186,8
DA:187,8
DA:188,8
DA:189,8
DA:190,8
DA:191,8
DA:192,8
DA:193,8
DA:194,8
DA:195,8
DA:196,1
DA:197,7
DA:198,7
DA:199,8
BRF:0
BRH:0
LF:152
LH:122
end_of_record
SF:/home/mark/lambdalabs/sk/src/lock.rs
FN:39,_RNvMNtCszRiG2tA5OY_2sk4lockNtB2_8Lockfile9empty_now
FN:48,_RNvNtCszRiG2tA5OY_2sk4lock13save_lockfile
FN:53,_RNCNvNtCszRiG2tA5OY_2sk4lock13save_lockfile0B5_
FN:53,_RNCNvNtCsiIZBh9Af6BQ_2sk4lock13save_lockfile0B5_
FN:39,_RNvMNtCsiIZBh9Af6BQ_2sk4lockNtB2_8Lockfile9empty_now
FN:48,_RNvNtCsiIZBh9Af6BQ_2sk4lock13save_lockfile
FN:53,_RNCNvNtCs6lq9tbfLiHo_2sk4lock13save_lockfile0B5_
FN:39,_RNvMNtCs6lq9tbfLiHo_2sk4lockNtB2_8Lockfile9empty_now
FN:48,_RNvNtCs6lq9tbfLiHo_2sk4lock13save_lockfile
FN:53,_RNCNvNtCsi7jgFQIBkCW_2sk4lock13save_lockfile0B5_
FN:39,_RNvMNtCsi7jgFQIBkCW_2sk4lockNtB2_8Lockfile9empty_now
FN:48,_RNvNtCsi7jgFQIBkCW_2sk4lock13save_lockfile
FNDA:0,_RNvMNtCszRiG2tA5OY_2sk4lockNtB2_8Lockfile9empty_now
FNDA:0,_RNvNtCszRiG2tA5OY_2sk4lock13save_lockfile
FNDA:0,_RNCNvNtCszRiG2tA5OY_2sk4lock13save_lockfile0B5_
FNDA:0,_RNCNvNtCsiIZBh9Af6BQ_2sk4lock13save_lockfile0B5_
FNDA:1,_RNvMNtCsiIZBh9Af6BQ_2sk4lockNtB2_8Lockfile9empty_now
FNDA:6,_RNvNtCsiIZBh9Af6BQ_2sk4lock13save_lockfile
FNDA:0,_RNCNvNtCs6lq9tbfLiHo_2sk4lock13save_lockfile0B5_
FNDA:0,_RNvMNtCs6lq9tbfLiHo_2sk4lockNtB2_8Lockfile9empty_now
FNDA:0,_RNvNtCs6lq9tbfLiHo_2sk4lock13save_lockfile
FNDA:0,_RNCNvNtCsi7jgFQIBkCW_2sk4lock13save_lockfile0B5_
FNDA:0,_RNvMNtCsi7jgFQIBkCW_2sk4lockNtB2_8Lockfile9empty_now
FNDA:0,_RNvNtCsi7jgFQIBkCW_2sk4lock13save_lockfile
FNF:3
FNH:2
DA:39,1
DA:40,1
DA:41,1
DA:42,1
DA:43,1
DA:44,1
DA:45,1
DA:48,6
DA:49,6
DA:50,6
DA:51,6
DA:52,0
DA:53,6
DA:54,6
DA:55,6
BRF:0
BRH:0
LF:16
LH:14
end_of_record
SF:/home/mark/lambdalabs/sk/src/main.rs
FN:275,_RNCNvCsiIZBh9Af6BQ_2sk10cmd_status0B3_
FN:318,_RNCNvCsiIZBh9Af6BQ_2sk10cmd_statuss0_0B3_
FN:343,_RNCNvCsiIZBh9Af6BQ_2sk10cmd_statuss1_0B3_
FN:284,_RNCNvCsiIZBh9Af6BQ_2sk10cmd_statuss_0B3_
FN:91,_RNCNvCsiIZBh9Af6BQ_2sk8cmd_init0B3_
FN:192,_RNCNvCsiIZBh9Af6BQ_2sk9cmd_check0B3_
FN:216,_RNCNvCsiIZBh9Af6BQ_2sk9cmd_checks0_0B3_
FN:201,_RNCNvCsiIZBh9Af6BQ_2sk9cmd_checks_0B3_
FN:117,_RNvCsiIZBh9Af6BQ_2sk10cmd_config
FN:263,_RNvCsiIZBh9Af6BQ_2sk10cmd_status
FN:145,_RNvCsiIZBh9Af6BQ_2sk17cmd_unimplemented
FN:20,_RNvCsiIZBh9Af6BQ_2sk4main
FN:85,_RNvCsiIZBh9Af6BQ_2sk8cmd_init
FN:149,_RNvCsiIZBh9Af6BQ_2sk8cmd_list
FN:180,_RNvCsiIZBh9Af6BQ_2sk9cmd_check
FN:240,_RNvCsiIZBh9Af6BQ_2sk9cmd_where
FN:275,_RNCNvCs6lq9tbfLiHo_2sk10cmd_status0B3_
FN:318,_RNCNvCs6lq9tbfLiHo_2sk10cmd_statuss0_0B3_
FN:343,_RNCNvCs6lq9tbfLiHo_2sk10cmd_statuss1_0B3_
FN:284,_RNCNvCs6lq9tbfLiHo_2sk10cmd_statuss_0B3_
FN:91,_RNCNvCs6lq9tbfLiHo_2sk8cmd_init0B3_
FN:192,_RNCNvCs6lq9tbfLiHo_2sk9cmd_check0B3_
FN:216,_RNCNvCs6lq9tbfLiHo_2sk9cmd_checks0_0B3_
FN:201,_RNCNvCs6lq9tbfLiHo_2sk9cmd_checks_0B3_
FN:117,_RNvCs6lq9tbfLiHo_2sk10cmd_config
FN:263,_RNvCs6lq9tbfLiHo_2sk10cmd_status
FN:145,_RNvCs6lq9tbfLiHo_2sk17cmd_unimplemented
FN:20,_RNvCs6lq9tbfLiHo_2sk4main
FN:85,_RNvCs6lq9tbfLiHo_2sk8cmd_init
FN:149,_RNvCs6lq9tbfLiHo_2sk8cmd_list
FN:180,_RNvCs6lq9tbfLiHo_2sk9cmd_check
FN:240,_RNvCs6lq9tbfLiHo_2sk9cmd_where
FNDA:0,_RNCNvCsiIZBh9Af6BQ_2sk10cmd_status0B3_
FNDA:0,_RNCNvCsiIZBh9Af6BQ_2sk10cmd_statuss0_0B3_
FNDA:0,_RNCNvCsiIZBh9Af6BQ_2sk10cmd_statuss1_0B3_
FNDA:0,_RNCNvCsiIZBh9Af6BQ_2sk10cmd_statuss_0B3_
FNDA:0,_RNCNvCsiIZBh9Af6BQ_2sk8cmd_init0B3_
FNDA:1,_RNCNvCsiIZBh9Af6BQ_2sk9cmd_check0B3_
FNDA:1,_RNCNvCsiIZBh9Af6BQ_2sk9cmd_checks0_0B3_
FNDA:1,_RNCNvCsiIZBh9Af6BQ_2sk9cmd_checks_0B3_
FNDA:0,_RNvCsiIZBh9Af6BQ_2sk10cmd_config
FNDA:0,_RNvCsiIZBh9Af6BQ_2sk10cmd_status
FNDA:0,_RNvCsiIZBh9Af6BQ_2sk17cmd_unimplemented
FNDA:18,_RNvCsiIZBh9Af6BQ_2sk4main
FNDA:0,_RNvCsiIZBh9Af6BQ_2sk8cmd_init
FNDA:0,_RNvCsiIZBh9Af6BQ_2sk8cmd_list
FNDA:1,_RNvCsiIZBh9Af6BQ_2sk9cmd_check
FNDA:0,_RNvCsiIZBh9Af6BQ_2sk9cmd_where
FNDA:0,_RNCNvCs6lq9tbfLiHo_2sk10cmd_status0B3_
FNDA:0,_RNCNvCs6lq9tbfLiHo_2sk10cmd_statuss0_0B3_
FNDA:0,_RNCNvCs6lq9tbfLiHo_2sk10cmd_statuss1_0B3_
FNDA:0,_RNCNvCs6lq9tbfLiHo_2sk10cmd_statuss_0B3_
FNDA:0,_RNCNvCs6lq9tbfLiHo_2sk8cmd_init0B3_
FNDA:0,_RNCNvCs6lq9tbfLiHo_2sk9cmd_check0B3_
FNDA:0,_RNCNvCs6lq9tbfLiHo_2sk9cmd_checks0_0B3_
FNDA:0,_RNCNvCs6lq9tbfLiHo_2sk9cmd_checks_0B3_
FNDA:0,_RNvCs6lq9tbfLiHo_2sk10cmd_config
FNDA:0,_RNvCs6lq9tbfLiHo_2sk10cmd_status
FNDA:0,_RNvCs6lq9tbfLiHo_2sk17cmd_unimplemented
FNDA:0,_RNvCs6lq9tbfLiHo_2sk4main
FNDA:0,_RNvCs6lq9tbfLiHo_2sk8cmd_init
FNDA:0,_RNvCs6lq9tbfLiHo_2sk8cmd_list
FNDA:0,_RNvCs6lq9tbfLiHo_2sk9cmd_check
FNDA:0,_RNvCs6lq9tbfLiHo_2sk9cmd_where
FNF:16
FNH:5
DA:20,18
DA:21,18
DA:22,18
DA:23,0
DA:24,0
DA:26,0
DA:27,0
DA:28,0
DA:29,1
DA:30,0
DA:31,1
DA:33,10
DA:34,10
DA:35,10
DA:36,10
DA:37,10
DA:38,10
DA:39,10
DA:40,10
DA:41,10
DA:42,10
DA:43,10
DA:44,10
DA:46,0
DA:47,0
DA:48,0
DA:50,0
DA:51,0
DA:54,0
DA:55,0
DA:56,0
DA:57,0
DA:59,0
DA:60,0
DA:62,3
DA:63,0
DA:64,2
DA:66,1
DA:67,1
DA:68,1
DA:69,1
DA:70,1
DA:71,1
DA:72,1
DA:73,1
DA:74,1
DA:75,1
DA:76,1
DA:77,1
DA:78,1
DA:79,1
DA:80,1
DA:81,1
DA:83,18
DA:85,0
DA:86,0
DA:87,0
DA:88,0
DA:89,0
DA:90,0
DA:91,0
DA:94,0
DA:95,0
DA:96,0
DA:97,0
DA:98,0
DA:99,0
DA:100,0
DA:101,0
DA:102,0
DA:103,0
DA:105,0
DA:108,0
DA:109,0
DA:110,0
DA:111,0
DA:113,0
DA:114,0
DA:115,0
DA:117,0
DA:118,0
DA:119,0
DA:120,0
DA:121,0
DA:122,0
DA:123,0
DA:124,0
DA:125,0
DA:126,0
DA:129,0
DA:130,0
DA:131,0
DA:132,0
DA:133,0
DA:134,0
DA:135,0
DA:136,0
DA:138,0
DA:139,0
DA:142,0
DA:143,0
DA:145,0
DA:146,0
DA:147,0
DA:149,0
DA:150,0
DA:151,0
DA:152,0
DA:153,0
DA:154,0
DA:155,0
DA:156,0
DA:157,0
DA:158,0
DA:159,0
DA:161,0
DA:162,0
DA:163,0
DA:164,0
DA:165,0
DA:166,0
DA:167,0
DA:168,0
DA:169,0
DA:171,0
DA:172,0
DA:180,1
DA:181,1
DA:182,1
DA:183,1
DA:184,1
DA:185,1
DA:186,1
DA:187,0
DA:188,1
DA:189,1
DA:190,1
DA:191,1
DA:192,1
DA:194,0
DA:197,1
DA:198,1
DA:199,1
DA:200,1
DA:201,1
DA:203,1
DA:204,1
DA:205,0
DA:208,1
DA:209,1
DA:210,1
DA:212,0
DA:215,1
DA:216,1
DA:217,1
DA:218,1
DA:219,1
DA:221,0
DA:224,1
DA:225,1
DA:226,1
DA:227,1
DA:230,1
DA:231,1
DA:233,0
DA:234,0
DA:235,0
DA:237,1
DA:238,1
DA:240,0
DA:241,0
DA:242,0
DA:243,0
DA:244,0
DA:245,0
DA:246,0
DA:247,0
DA:248,0
DA:250,0
DA:252,0
DA:263,0
DA:264,0
DA:265,0
DA:266,0
DA:267,0
DA:268,0
DA:269,0
DA:270,0
DA:271,0
DA:272,0
DA:273,0
DA:274,0
DA:275,0
DA:277,0
DA:279,0
DA:281,0
DA:282,0
DA:283,0
DA:284,0
DA:286,0
DA:287,0
DA:288,0
DA:290,0
DA:291,0
DA:292,0
DA:293,0
DA:294,0
DA:298,0
DA:299,0
DA:300,0
DA:301,0
DA:303,0
DA:304,0
DA:305,0
DA:306,0
DA:307,0
DA:308,0
DA:309,0
DA:311,0
DA:315,0
DA:316,0
DA:317,0
DA:318,0
DA:319,0
DA:320,0
DA:321,0
DA:324,0
DA:325,0
DA:326,0
DA:327,0
DA:328,0
DA:329,0
DA:330,0
DA:331,0
DA:332,0
DA:333,0
DA:334,0
DA:335,0
DA:336,0
DA:339,0
DA:340,0
DA:342,0
DA:343,0
DA:344,0
DA:347,0
DA:348,0
BRF:0
BRH:0
LF:254
LH:74
end_of_record
SF:/home/mark/lambdalabs/sk/src/paths.rs
FN:24,_RNCNvNtCszRiG2tA5OY_2sk5paths10cache_root0B5_
FN:12,_RNvNtCszRiG2tA5OY_2sk5paths10cache_root
FN:29,_RNvNtCszRiG2tA5OY_2sk5paths15cache_repo_path
FN:3,_RNvNtCszRiG2tA5OY_2sk5paths20resolve_project_path
FN:12,_RNvNtCsiIZBh9Af6BQ_2sk5paths10cache_root
FN:29,_RNvNtCsiIZBh9Af6BQ_2sk5paths15cache_repo_path
FN:3,_RNvNtCsiIZBh9Af6BQ_2sk5paths20resolve_project_path
FN:24,_RNCNvNtCsiIZBh9Af6BQ_2sk5paths10cache_root0B5_
FN:24,_RNCNvNtCs6lq9tbfLiHo_2sk5paths10cache_root0B5_
FN:12,_RNvNtCs6lq9tbfLiHo_2sk5paths10cache_root
FN:29,_RNvNtCs6lq9tbfLiHo_2sk5paths15cache_repo_path
FN:3,_RNvNtCs6lq9tbfLiHo_2sk5paths20resolve_project_path
FN:24,_RNCNvNtCsi7jgFQIBkCW_2sk5paths10cache_root0B5_
FN:12,_RNvNtCsi7jgFQIBkCW_2sk5paths10cache_root
FN:29,_RNvNtCsi7jgFQIBkCW_2sk5paths15cache_repo_path
FN:3,_RNvNtCsi7jgFQIBkCW_2sk5paths20resolve_project_path
FNDA:0,_RNCNvNtCszRiG2tA5OY_2sk5paths10cache_root0B5_
FNDA:1,_RNvNtCszRiG2tA5OY_2sk5paths10cache_root
FNDA:0,_RNvNtCszRiG2tA5OY_2sk5paths15cache_repo_path
FNDA:2,_RNvNtCszRiG2tA5OY_2sk5paths20resolve_project_path
FNDA:39,_RNvNtCsiIZBh9Af6BQ_2sk5paths10cache_root
FNDA:36,_RNvNtCsiIZBh9Af6BQ_2sk5paths15cache_repo_path
FNDA:15,_RNvNtCsiIZBh9Af6BQ_2sk5paths20resolve_project_path
FNDA:0,_RNCNvNtCsiIZBh9Af6BQ_2sk5paths10cache_root0B5_
FNDA:0,_RNCNvNtCs6lq9tbfLiHo_2sk5paths10cache_root0B5_
FNDA:0,_RNvNtCs6lq9tbfLiHo_2sk5paths10cache_root
FNDA:0,_RNvNtCs6lq9tbfLiHo_2sk5paths15cache_repo_path
FNDA:0,_RNvNtCs6lq9tbfLiHo_2sk5paths20resolve_project_path
FNDA:0,_RNCNvNtCsi7jgFQIBkCW_2sk5paths10cache_root0B5_
FNDA:0,_RNvNtCsi7jgFQIBkCW_2sk5paths10cache_root
FNDA:0,_RNvNtCsi7jgFQIBkCW_2sk5paths15cache_repo_path
FNDA:0,_RNvNtCsi7jgFQIBkCW_2sk5paths20resolve_project_path
FNF:4
FNH:3
DA:3,17
DA:4,17
DA:5,17
DA:6,1
DA:8,16
DA:10,17
DA:12,40
DA:14,40
DA:15,40
DA:16,0
DA:18,0
DA:19,0
DA:22,0
DA:23,0
DA:24,0
DA:25,0
DA:27,40
DA:29,36
DA:30,36
DA:31,36
BRF:0
BRH:0
LF:21
LH:13
end_of_record
SF:/home/mark/lambdalabs/sk/src/precommit.rs
FN:5,_RNvNtCsiIZBh9Af6BQ_2sk9precommit13run_precommit
FN:12,_RNCNvNtCsiIZBh9Af6BQ_2sk9precommit13run_precommit0B5_
FN:12,_RNCNvNtCs6lq9tbfLiHo_2sk9precommit13run_precommit0B5_
FN:5,_RNvNtCs6lq9tbfLiHo_2sk9precommit13run_precommit
FNDA:2,_RNvNtCsiIZBh9Af6BQ_2sk9precommit13run_precommit
FNDA:0,_RNCNvNtCsiIZBh9Af6BQ_2sk9precommit13run_precommit0B5_
FNDA:0,_RNCNvNtCs6lq9tbfLiHo_2sk9precommit13run_precommit0B5_
FNDA:0,_RNvNtCs6lq9tbfLiHo_2sk9precommit13run_precommit
FNF:2
FNH:1
DA:5,2
DA:6,2
DA:7,2
DA:8,2
DA:10,0
DA:11,2
DA:12,2
DA:13,2
DA:15,2
DA:16,4
DA:17,2
DA:18,2
DA:19,2
DA:20,2
DA:21,1
DA:22,1
DA:23,1
DA:24,1
DA:25,1
DA:28,2
DA:29,1
DA:30,1
DA:32,2
DA:33,1
DA:34,1
DA:35,1
DA:36,1
DA:38,1
DA:39,1
DA:40,0
DA:41,1
DA:42,1
DA:43,2
BRF:0
BRH:0
LF:34
LH:31
end_of_record
SF:/home/mark/lambdalabs/sk/src/skills.rs
FN:21,_RNvNtCszRiG2tA5OY_2sk6skills19list_skills_in_repo
FN:80,_RNvNtCszRiG2tA5OY_2sk6skills22parse_frontmatter_file
FN:72,_RNvNtCszRiG2tA5OY_2sk6skills23parse_skill_frontmatter
FN:81,_RNCNvNtCszRiG2tA5OY_2sk6skills22parse_frontmatter_file0B5_
FN:81,_RNCNvNtCsiIZBh9Af6BQ_2sk6skills22parse_frontmatter_file0B5_
FN:21,_RNvNtCsiIZBh9Af6BQ_2sk6skills19list_skills_in_repo
FN:80,_RNvNtCsiIZBh9Af6BQ_2sk6skills22parse_frontmatter_file
FN:72,_RNvNtCsiIZBh9Af6BQ_2sk6skills23parse_skill_frontmatter
FN:81,_RNCNvNtCs6lq9tbfLiHo_2sk6skills22parse_frontmatter_file0B5_
FN:21,_RNvNtCs6lq9tbfLiHo_2sk6skills19list_skills_in_repo
FN:80,_RNvNtCs6lq9tbfLiHo_2sk6skills22parse_frontmatter_file
FN:72,_RNvNtCs6lq9tbfLiHo_2sk6skills23parse_skill_frontmatter
FN:81,_RNCNvNtCsi7jgFQIBkCW_2sk6skills22parse_frontmatter_file0B5_
FN:21,_RNvNtCsi7jgFQIBkCW_2sk6skills19list_skills_in_repo
FN:80,_RNvNtCsi7jgFQIBkCW_2sk6skills22parse_frontmatter_file
FN:72,_RNvNtCsi7jgFQIBkCW_2sk6skills23parse_skill_frontmatter
FNDA:1,_RNvNtCszRiG2tA5OY_2sk6skills19list_skills_in_repo
FNDA:2,_RNvNtCszRiG2tA5OY_2sk6skills22parse_frontmatter_file
FNDA:4,_RNvNtCszRiG2tA5OY_2sk6skills23parse_skill_frontmatter
FNDA:0,_RNCNvNtCszRiG2tA5OY_2sk6skills22parse_frontmatter_file0B5_
FNDA:0,_RNCNvNtCsiIZBh9Af6BQ_2sk6skills22parse_frontmatter_file0B5_
FNDA:1,_RNvNtCsiIZBh9Af6BQ_2sk6skills19list_skills_in_repo
FNDA:1,_RNvNtCsiIZBh9Af6BQ_2sk6skills22parse_frontmatter_file
FNDA:2,_RNvNtCsiIZBh9Af6BQ_2sk6skills23parse_skill_frontmatter
FNDA:0,_RNCNvNtCs6lq9tbfLiHo_2sk6skills22parse_frontmatter_file0B5_
FNDA:0,_RNvNtCs6lq9tbfLiHo_2sk6skills19list_skills_in_repo
FNDA:0,_RNvNtCs6lq9tbfLiHo_2sk6skills22parse_frontmatter_file
FNDA:0,_RNvNtCs6lq9tbfLiHo_2sk6skills23parse_skill_frontmatter
FNDA:0,_RNCNvNtCsi7jgFQIBkCW_2sk6skills22parse_frontmatter_file0B5_
FNDA:0,_RNvNtCsi7jgFQIBkCW_2sk6skills19list_skills_in_repo
FNDA:0,_RNvNtCsi7jgFQIBkCW_2sk6skills22parse_frontmatter_file
FNDA:0,_RNvNtCsi7jgFQIBkCW_2sk6skills23parse_skill_frontmatter
FNF:4
FNH:3
DA:21,2
DA:23,2
DA:24,2
DA:25,2
DA:26,2
DA:27,2
DA:28,2
DA:29,2
DA:30,2
DA:31,2
DA:32,2
DA:33,2
DA:34,2
DA:35,0
DA:36,2
DA:37,2
DA:38,2
DA:39,4
DA:40,4
DA:41,1
DA:42,3
DA:43,3
DA:44,3
DA:45,3
DA:46,3
DA:47,3
DA:48,3
DA:49,3
DA:50,3
DA:51,3
DA:52,3
DA:53,3
DA:54,0
DA:55,3
DA:56,3
DA:57,3
DA:58,3
DA:59,0
DA:61,3
DA:63,3
DA:64,3
DA:65,3
DA:66,3
DA:67,0
DA:69,2
DA:70,2
DA:72,6
DA:74,6
DA:75,6
DA:76,5
DA:77,5
DA:78,6
DA:80,3
DA:81,3
DA:82,3
DA:83,3
BRF:0
BRH:0
LF:57
LH:52
end_of_record
SF:/home/mark/lambdalabs/sk/src/update.rs
FN:17,_RNCNvNtCszRiG2tA5OY_2sk6update10run_update0B5_
FN:19,_RNCNvNtCszRiG2tA5OY_2sk6update10run_updates_0B5_
FN:6,_RNvNtCsiIZBh9Af6BQ_2sk6update10run_update
FN:17,_RNCNvNtCsiIZBh9Af6BQ_2sk6update10run_update0B5_
FN:19,_RNCNvNtCsiIZBh9Af6BQ_2sk6update10run_updates_0B5_
FN:17,_RNCNvNtCs6lq9tbfLiHo_2sk6update10run_update0B5_
FN:19,_RNCNvNtCs6lq9tbfLiHo_2sk6update10run_updates_0B5_
FN:6,_RNvNtCs6lq9tbfLiHo_2sk6update10run_update
FN:17,_RNCNvNtCsi7jgFQIBkCW_2sk6update10run_update0B5_
FN:19,_RNCNvNtCsi7jgFQIBkCW_2sk6update10run_updates_0B5_
FN:6,_RNvNtCsi7jgFQIBkCW_2sk6update10run_update
FNDA:0,_RNCNvNtCszRiG2tA5OY_2sk6update10run_update0B5_
FNDA:0,_RNCNvNtCszRiG2tA5OY_2sk6update10run_updates_0B5_
FNDA:1,_RNvNtCsiIZBh9Af6BQ_2sk6update10run_update
FNDA:0,_RNCNvNtCsiIZBh9Af6BQ_2sk6update10run_update0B5_
FNDA:0,_RNCNvNtCsiIZBh9Af6BQ_2sk6update10run_updates_0B5_
FNDA:0,_RNCNvNtCs6lq9tbfLiHo_2sk6update10run_update0B5_
FNDA:0,_RNCNvNtCs6lq9tbfLiHo_2sk6update10run_updates_0B5_
FNDA:0,_RNvNtCs6lq9tbfLiHo_2sk6update10run_update
FNDA:0,_RNCNvNtCsi7jgFQIBkCW_2sk6update10run_update0B5_
FNDA:0,_RNCNvNtCsi7jgFQIBkCW_2sk6update10run_updates_0B5_
FNDA:0,_RNvNtCsi7jgFQIBkCW_2sk6update10run_update
FNF:3
FNH:1
DA:6,1
DA:7,1
DA:8,1
DA:9,1
DA:10,0
DA:11,0
DA:12,0
DA:14,0
DA:15,1
DA:16,1
DA:17,1
DA:18,1
DA:19,1
DA:21,1
DA:22,2
DA:23,1
DA:24,1
DA:25,1
DA:26,0
DA:27,0
DA:28,1
DA:30,1
DA:31,1
DA:32,1
DA:33,1
DA:34,1
DA:35,1
DA:36,1
DA:37,1
DA:38,1
DA:39,1
DA:40,1
DA:42,1
DA:43,1
BRF:0
BRH:0
LF:36
LH:28
end_of_record
SF:/home/mark/lambdalabs/sk/src/upgrade.rs
FN:35,_RNCNvNtCszRiG2tA5OY_2sk7upgrade11run_upgrade0B5_
FN:118,_RNCNvNtCszRiG2tA5OY_2sk7upgrade11run_upgrades0_0B5_
FN:153,_RNCNvNtCszRiG2tA5OY_2sk7upgrade11run_upgrades1_0B5_
FN:173,_RNCNvNtCszRiG2tA5OY_2sk7upgrade11run_upgrades2_0B5_
FN:183,_RNCNvNtCszRiG2tA5OY_2sk7upgrade11run_upgrades3_0B5_
FN:187,_RNCNvNtCszRiG2tA5OY_2sk7upgrade11run_upgrades4_0B5_
FN:207,_RNCNvNtCszRiG2tA5OY_2sk7upgrade11run_upgrades5_0B5_
FN:289,_RNCNvNtCszRiG2tA5OY_2sk7upgrade11run_upgrades6_0B5_
FN:300,_RNCNvNtCszRiG2tA5OY_2sk7upgrade11run_upgrades7_0B5_
FN:103,_RNCNvNtCszRiG2tA5OY_2sk7upgrade11run_upgrades_0B5_
FN:243,_RNCNvNvNtCszRiG2tA5OY_2sk7upgrade11run_upgrade12copy_dir_all0B7_
FN:252,_RNCNvNvNtCszRiG2tA5OY_2sk7upgrade11run_upgrade12copy_dir_alls_0B7_
FN:15,_RNvNtCszRiG2tA5OY_2sk7upgrade11run_upgrade
FN:223,_RNvNvNtCszRiG2tA5OY_2sk7upgrade11run_upgrade12copy_dir_all
FN:35,_RNCNvNtCsiIZBh9Af6BQ_2sk7upgrade11run_upgrade0B5_
FN:118,_RNCNvNtCsiIZBh9Af6BQ_2sk7upgrade11run_upgrades0_0B5_
FN:153,_RNCNvNtCsiIZBh9Af6BQ_2sk7upgrade11run_upgrades1_0B5_
FN:173,_RNCNvNtCsiIZBh9Af6BQ_2sk7upgrade11run_upgrades2_0B5_
FN:183,_RNCNvNtCsiIZBh9Af6BQ_2sk7upgrade11run_upgrades3_0B5_
FN:187,_RNCNvNtCsiIZBh9Af6BQ_2sk7upgrade11run_upgrades4_0B5_
FN:207,_RNCNvNtCsiIZBh9Af6BQ_2sk7upgrade11run_upgrades5_0B5_
FN:289,_RNCNvNtCsiIZBh9Af6BQ_2sk7upgrade11run_upgrades6_0B5_
FN:300,_RNCNvNtCsiIZBh9Af6BQ_2sk7upgrade11run_upgrades7_0B5_
FN:103,_RNCNvNtCsiIZBh9Af6BQ_2sk7upgrade11run_upgrades_0B5_
FN:243,_RNCNvNvNtCsiIZBh9Af6BQ_2sk7upgrade11run_upgrade12copy_dir_all0B7_
FN:252,_RNCNvNvNtCsiIZBh9Af6BQ_2sk7upgrade11run_upgrade12copy_dir_alls_0B7_
FN:15,_RNvNtCsiIZBh9Af6BQ_2sk7upgrade11run_upgrade
FN:223,_RNvNvNtCsiIZBh9Af6BQ_2sk7upgrade11run_upgrade12copy_dir_all
FN:35,_RNCNvNtCs6lq9tbfLiHo_2sk7upgrade11run_upgrade0B5_
FN:118,_RNCNvNtCs6lq9tbfLiHo_2sk7upgrade11run_upgrades0_0B5_
FN:153,_RNCNvNtCs6lq9tbfLiHo_2sk7upgrade11run_upgrades1_0B5_
FN:173,_RNCNvNtCs6lq9tbfLiHo_2sk7upgrade11run_upgrades2_0B5_
FN:183,_RNCNvNtCs6lq9tbfLiHo_2sk7upgrade11run_upgrades3_0B5_
FN:187,_RNCNvNtCs6lq9tbfLiHo_2sk7upgrade11run_upgrades4_0B5_
FN:207,_RNCNvNtCs6lq9tbfLiHo_2sk7upgrade11run_upgrades5_0B5_
FN:289,_RNCNvNtCs6lq9tbfLiHo_2sk7upgrade11run_upgrades6_0B5_
FN:300,_RNCNvNtCs6lq9tbfLiHo_2sk7upgrade11run_upgrades7_0B5_
FN:103,_RNCNvNtCs6lq9tbfLiHo_2sk7upgrade11run_upgrades_0B5_
FN:243,_RNCNvNvNtCs6lq9tbfLiHo_2sk7upgrade11run_upgrade12copy_dir_all0B7_
FN:252,_RNCNvNvNtCs6lq9tbfLiHo_2sk7upgrade11run_upgrade12copy_dir_alls_0B7_
FN:15,_RNvNtCs6lq9tbfLiHo_2sk7upgrade11run_upgrade
FN:223,_RNvNvNtCs6lq9tbfLiHo_2sk7upgrade11run_upgrade12copy_dir_all
FN:35,_RNCNvNtCsi7jgFQIBkCW_2sk7upgrade11run_upgrade0B5_
FN:118,_RNCNvNtCsi7jgFQIBkCW_2sk7upgrade11run_upgrades0_0B5_
FN:153,_RNCNvNtCsi7jgFQIBkCW_2sk7upgrade11run_upgrades1_0B5_
FN:173,_RNCNvNtCsi7jgFQIBkCW_2sk7upgrade11run_upgrades2_0B5_
FN:183,_RNCNvNtCsi7jgFQIBkCW_2sk7upgrade11run_upgrades3_0B5_
FN:187,_RNCNvNtCsi7jgFQIBkCW_2sk7upgrade11run_upgrades4_0B5_
FN:207,_RNCNvNtCsi7jgFQIBkCW_2sk7upgrade11run_upgrades5_0B5_
FN:289,_RNCNvNtCsi7jgFQIBkCW_2sk7upgrade11run_upgrades6_0B5_
FN:300,_RNCNvNtCsi7jgFQIBkCW_2sk7upgrade11run_upgrades7_0B5_
FN:103,_RNCNvNtCsi7jgFQIBkCW_2sk7upgrade11run_upgrades_0B5_
FN:243,_RNCNvNvNtCsi7jgFQIBkCW_2sk7upgrade11run_upgrade12copy_dir_all0B7_
FN:252,_RNCNvNvNtCsi7jgFQIBkCW_2sk7upgrade11run_upgrade12copy_dir_alls_0B7_
FN:15,_RNvNtCsi7jgFQIBkCW_2sk7upgrade11run_upgrade
FN:223,_RNvNvNtCsi7jgFQIBkCW_2sk7upgrade11run_upgrade12copy_dir_all
FNDA:0,_RNCNvNtCszRiG2tA5OY_2sk7upgrade11run_upgrade0B5_
FNDA:0,_RNCNvNtCszRiG2tA5OY_2sk7upgrade11run_upgrades0_0B5_
FNDA:0,_RNCNvNtCszRiG2tA5OY_2sk7upgrade11run_upgrades1_0B5_
FNDA:0,_RNCNvNtCszRiG2tA5OY_2sk7upgrade11run_upgrades2_0B5_
FNDA:0,_RNCNvNtCszRiG2tA5OY_2sk7upgrade11run_upgrades3_0B5_
FNDA:0,_RNCNvNtCszRiG2tA5OY_2sk7upgrade11run_upgrades4_0B5_
FNDA:0,_RNCNvNtCszRiG2tA5OY_2sk7upgrade11run_upgrades5_0B5_
FNDA:0,_RNCNvNtCszRiG2tA5OY_2sk7upgrade11run_upgrades6_0B5_
FNDA:0,_RNCNvNtCszRiG2tA5OY_2sk7upgrade11run_upgrades7_0B5_
FNDA:0,_RNCNvNtCszRiG2tA5OY_2sk7upgrade11run_upgrades_0B5_
FNDA:0,_RNCNvNvNtCszRiG2tA5OY_2sk7upgrade11run_upgrade12copy_dir_all0B7_
FNDA:0,_RNCNvNvNtCszRiG2tA5OY_2sk7upgrade11run_upgrade12copy_dir_alls_0B7_
FNDA:0,_RNvNtCszRiG2tA5OY_2sk7upgrade11run_upgrade
FNDA:0,_RNvNvNtCszRiG2tA5OY_2sk7upgrade11run_upgrade12copy_dir_all
FNDA:1,_RNCNvNtCsiIZBh9Af6BQ_2sk7upgrade11run_upgrade0B5_
FNDA:11,_RNCNvNtCsiIZBh9Af6BQ_2sk7upgrade11run_upgrades0_0B5_
FNDA:0,_RNCNvNtCsiIZBh9Af6BQ_2sk7upgrade11run_upgrades1_0B5_
FNDA:0,_RNCNvNtCsiIZBh9Af6BQ_2sk7upgrade11run_upgrades2_0B5_
FNDA:0,_RNCNvNtCsiIZBh9Af6BQ_2sk7upgrade11run_upgrades3_0B5_
FNDA:0,_RNCNvNtCsiIZBh9Af6BQ_2sk7upgrade11run_upgrades4_0B5_
FNDA:0,_RNCNvNtCsiIZBh9Af6BQ_2sk7upgrade11run_upgrades5_0B5_
FNDA:2,_RNCNvNtCsiIZBh9Af6BQ_2sk7upgrade11run_upgrades6_0B5_
FNDA:1,_RNCNvNtCsiIZBh9Af6BQ_2sk7upgrade11run_upgrades7_0B5_
FNDA:0,_RNCNvNtCsiIZBh9Af6BQ_2sk7upgrade11run_upgrades_0B5_
FNDA:0,_RNCNvNvNtCsiIZBh9Af6BQ_2sk7upgrade11run_upgrade12copy_dir_all0B7_
FNDA:0,_RNCNvNvNtCsiIZBh9Af6BQ_2sk7upgrade11run_upgrade12copy_dir_alls_0B7_
FNDA:10,_RNvNtCsiIZBh9Af6BQ_2sk7upgrade11run_upgrade
FNDA:2,_RNvNvNtCsiIZBh9Af6BQ_2sk7upgrade11run_upgrade12copy_dir_all
FNDA:0,_RNCNvNtCs6lq9tbfLiHo_2sk7upgrade11run_upgrade0B5_
FNDA:0,_RNCNvNtCs6lq9tbfLiHo_2sk7upgrade11run_upgrades0_0B5_
FNDA:0,_RNCNvNtCs6lq9tbfLiHo_2sk7upgrade11run_upgrades1_0B5_
FNDA:0,_RNCNvNtCs6lq9tbfLiHo_2sk7upgrade11run_upgrades2_0B5_
FNDA:0,_RNCNvNtCs6lq9tbfLiHo_2sk7upgrade11run_upgrades3_0B5_
FNDA:0,_RNCNvNtCs6lq9tbfLiHo_2sk7upgrade11run_upgrades4_0B5_
FNDA:0,_RNCNvNtCs6lq9tbfLiHo_2sk7upgrade11run_upgrades5_0B5_
FNDA:0,_RNCNvNtCs6lq9tbfLiHo_2sk7upgrade11run_upgrades6_0B5_
FNDA:0,_RNCNvNtCs6lq9tbfLiHo_2sk7upgrade11run_upgrades7_0B5_
FNDA:0,_RNCNvNtCs6lq9tbfLiHo_2sk7upgrade11run_upgrades_0B5_
FNDA:0,_RNCNvNvNtCs6lq9tbfLiHo_2sk7upgrade11run_upgrade12copy_dir_all0B7_
FNDA:0,_RNCNvNvNtCs6lq9tbfLiHo_2sk7upgrade11run_upgrade12copy_dir_alls_0B7_
FNDA:0,_RNvNtCs6lq9tbfLiHo_2sk7upgrade11run_upgrade
FNDA:0,_RNvNvNtCs6lq9tbfLiHo_2sk7upgrade11run_upgrade12copy_dir_all
FNDA:0,_RNCNvNtCsi7jgFQIBkCW_2sk7upgrade11run_upgrade0B5_
FNDA:0,_RNCNvNtCsi7jgFQIBkCW_2sk7upgrade11run_upgrades0_0B5_
FNDA:0,_RNCNvNtCsi7jgFQIBkCW_2sk7upgrade11run_upgrades1_0B5_
FNDA:0,_RNCNvNtCsi7jgFQIBkCW_2sk7upgrade11run_upgrades2_0B5_
FNDA:0,_RNCNvNtCsi7jgFQIBkCW_2sk7upgrade11run_upgrades3_0B5_
FNDA:0,_RNCNvNtCsi7jgFQIBkCW_2sk7upgrade11run_upgrades4_0B5_
FNDA:0,_RNCNvNtCsi7jgFQIBkCW_2sk7upgrade11run_upgrades5_0B5_
FNDA:0,_RNCNvNtCsi7jgFQIBkCW_2sk7upgrade11run_upgrades6_0B5_
FNDA:0,_RNCNvNtCsi7jgFQIBkCW_2sk7upgrade11run_upgrades7_0B5_
FNDA:0,_RNCNvNtCsi7jgFQIBkCW_2sk7upgrade11run_upgrades_0B5_
FNDA:0,_RNCNvNvNtCsi7jgFQIBkCW_2sk7upgrade11run_upgrade12copy_dir_all0B7_
FNDA:0,_RNCNvNvNtCsi7jgFQIBkCW_2sk7upgrade11run_upgrade12copy_dir_alls_0B7_
FNDA:0,_RNvNtCsi7jgFQIBkCW_2sk7upgrade11run_upgrade
FNDA:0,_RNvNvNtCsi7jgFQIBkCW_2sk7upgrade11run_upgrade12copy_dir_all
FNF:14
FNH:6
DA:15,10
DA:16,10
DA:17,10
DA:18,10
DA:19,10
DA:21,10
DA:22,10
DA:23,0
DA:24,10
DA:25,10
DA:26,10
DA:29,10
DA:30,10
DA:31,9
DA:33,1
DA:34,1
DA:35,1
DA:36,1
DA:37,1
DA:39,10
DA:40,0
DA:41,10
DA:44,10
DA:45,10
DA:46,28
DA:47,18
DA:48,18
DA:49,0
DA:50,0
DA:53,18
DA:54,18
DA:55,18
DA:56,18
DA:57,0
DA:60,18
DA:61,18
DA:63,18
DA:64,18
DA:65,18
DA:66,18
DA:67,18
DA:68,18
DA:69,18
DA:71,18
DA:72,1
DA:74,17
DA:76,18
DA:78,17
DA:79,17
DA:80,17
DA:82,1
DA:83,1
DA:84,1
DA:85,1
DA:87,0
DA:92,18
DA:93,16
DA:94,16
DA:96,18
DA:97,3
DA:98,15
DA:101,10
DA:102,0
DA:103,0
DA:104,0
DA:105,0
DA:107,0
DA:108,10
DA:110,10
DA:111,3
DA:112,7
DA:115,7
DA:116,7
DA:117,14
DA:118,11
DA:119,8
DA:120,8
DA:121,8
DA:122,8
DA:123,8
DA:124,8
DA:125,8
DA:126,8
DA:127,1
DA:128,7
DA:129,7
DA:133,6
DA:134,6
DA:135,6
DA:136,6
DA:137,6
DA:138,6
DA:139,4
DA:140,4
DA:141,4
DA:143,0
DA:144,0
DA:147,4
DA:148,4
DA:149,0
DA:150,4
DA:151,4
DA:152,4
DA:153,4
DA:155,0
DA:158,4
DA:159,2
DA:161,2
DA:163,4
DA:165,2
DA:166,2
DA:167,0
DA:168,2
DA:169,2
DA:170,2
DA:172,1
DA:173,1
DA:174,1
DA:175,1
DA:176,1
DA:177,1
DA:179,1
DA:180,0
DA:181,1
DA:182,1
DA:183,1
DA:186,0
DA:187,0
DA:188,0
DA:189,0
DA:190,0
DA:191,1
DA:192,2
DA:194,3
DA:195,3
DA:197,3
DA:198,1
DA:199,1
DA:200,2
DA:203,6
DA:204,2
DA:205,1
DA:207,1
DA:209,0
DA:210,0
DA:212,1
DA:213,1
DA:216,2
DA:217,4
DA:219,6
DA:220,2
DA:221,2
DA:223,2
DA:224,2
DA:225,2
DA:226,5
DA:227,5
DA:228,5
DA:229,5
DA:230,5
DA:231,5
DA:232,2
DA:233,3
DA:234,3
DA:235,3
DA:236,0
DA:238,3
DA:239,3
DA:240,1
DA:241,2
DA:242,2
DA:243,2
DA:244,0
DA:245,0
DA:249,0
DA:250,0
DA:251,0
DA:252,0
DA:253,0
DA:254,0
DA:278,0
DA:280,1
DA:281,2
DA:283,4
DA:284,0
DA:285,4
DA:288,6
DA:289,2
DA:290,2
DA:291,2
DA:292,2
DA:295,4
DA:296,2
DA:297,1
DA:298,1
DA:299,1
DA:300,1
DA:301,1
DA:302,1
DA:303,1
DA:305,3
DA:306,4
DA:307,1
DA:308,1
DA:309,3
DA:310,3
DA:311,3
DA:312,3
DA:313,3
DA:314,10
BRF:0
BRH:0
LF:223
LH:179
end_of_record